******************************************************************************
                  TI ARM Linker PC v16.9.6                     
******************************************************************************
>> Linked Sat Jun 15 15:37:27 2019

OUTPUT FILE NAME:   <adcs_firmware.out>
ENTRY POINT SYMBOL: "_c_int00"  address: 00005db4


MEMORY CONFIGURATION

         name            origin    length      used     unused   attr    fill
----------------------  --------  ---------  --------  --------  ----  --------
  VECTORS               00000000   00000020  00000020  00000000     X
  FLASH0                00000020   0013ffe0  00006984  0013965c  R  X
  STACKS                08000000   00001500  00000000  00001500  RW  
  RAM                   08001500   0002eb00  00000014  0002eaec  RW  


SEGMENT ALLOCATION MAP

run origin  load origin   length   init length attrs members
----------  ----------- ---------- ----------- ----- -------
00000000    00000000    000069a8   000069a8    r-x
  00000000    00000000    00000020   00000020    r-x .intvecs
  00000020    00000020    00006764   00006764    r-x .text
  00006784    00006784    00000200   00000200    r-- .const
  00006988    00006988    00000020   00000020    r-- .cinit
08001500    08001500    00000014   00000000    rw-
  08001500    08001500    00000014   00000000    rw- .data


SECTION ALLOCATION MAP

 output                                  attributes/
section   page    origin      length       input sections
--------  ----  ----------  ----------   ----------------
.intvecs   0    00000000    00000020     
                  00000000    00000020     sys_intvecs.obj (.intvecs)

.text      0    00000020    00006764     
                  00000020    00002cdc     sys_selftest.obj (.text)
                  00002cfc    00000b64     system.obj (.text)
                  00003860    00000a54     sys_vim.obj (.text)
                  000042b4    000008ac     pinmux.obj (.text)
                  00004b60    00000664     errata_SSWF021_45.obj (.text)
                  000051c4    000005d8     esm.obj (.text)
                  0000579c    0000034c     sys_core.obj (.text)
                  00005ae8    000002cc     sys_vim.obj (.text:retain)
                  00005db4    00000290     sys_startup.obj (.text:retain)
                  00006044    0000021c     notification.obj (.text)
                  00006260    00000114     esm.obj (.text:retain)
                  00006374    000000e8     dabort.obj (.text)
                  0000645c    000000e0     sys_pmu.obj (.text)
                  0000653c    0000009c     rtsv7R4_T_be_v3D16_eabi.lib : memcpy_t2.obj (.text)
                  000065d8    00000070                                 : autoinit.obj (.text)
                  00006648    0000006c                                 : copy_decompress_lzss.obj (.text:decompress:lzss)
                  000066b4    00000050                                 : exit.obj (.text)
                  00006704    0000004c                                 : cpy_tbl.obj (.text)
                  00006750    00000014                                 : _lock.obj (.text)
                  00006764    0000000e                                 : copy_decompress_none.obj (.text:decompress:none)
                  00006772    00000002                                 : startup.obj (.text)
                  00006774    00000008     sys_main.obj (.text)
                  0000677c    00000004     sys_phantom.obj (.text:retain)
                  00006780    00000004     sys_startup.obj (.text)

.const     0    00006784    00000200     
                  00006784    00000200     sys_vim.obj (.const:s_vim_init)

.cinit     0    00006988    00000020     
                  00006988    0000000f     (.cinit..data.load) [load image, compression = lzss]
                  00006997    00000001     --HOLE-- [fill = 0]
                  00006998    00000008     (__TI_handler_table)
                  000069a0    00000008     (__TI_cinit_table)

.data      0    08001500    00000014     UNINITIALIZED
                  08001500    0000000c     rtsv7R4_T_be_v3D16_eabi.lib : exit.obj (.data:$O1$$)
                  0800150c    00000008                                 : _lock.obj (.data:$O1$$)

MODULE SUMMARY

       Module                     code    ro data   rw data
       ------                     ----    -------   -------
    .\platform-1224-launchpad\source\
       sys_selftest.obj           11484   0         0      
       sys_vim.obj                3360    512       0      
       system.obj                 2916    0         0      
       pinmux.obj                 2220    0         0      
       esm.obj                    1772    0         0      
       errata_SSWF021_45.obj      1636    0         0      
       sys_core.obj               844     0         0      
       sys_startup.obj            660     0         0      
       notification.obj           540     0         0      
       dabort.obj                 232     0         0      
       sys_pmu.obj                224     0         0      
       sys_intvecs.obj            32      0         0      
       sys_main.obj               8       0         0      
       sys_phantom.obj            4       0         0      
    +--+--------------------------+-------+---------+---------+
       Total:                     25932   512       0      
                                                           
    M:/ti/ccsv7/tools/compiler/ti-cgt-arm_16.9.6.LTS/lib/rtsv7R4_T_be_v3D16_eabi.lib
       memcpy_t2.obj              156     0         0      
       autoinit.obj               112     0         0      
       copy_decompress_lzss.obj   108     0         0      
       exit.obj                   80      0         12     
       cpy_tbl.obj                76      0         0      
       _lock.obj                  20      0         8      
       copy_decompress_none.obj   14      0         0      
       startup.obj                2       0         0      
    +--+--------------------------+-------+---------+---------+
       Total:                     568     0         20     
                                                           
       Linker Generated:          0       31        0      
    +--+--------------------------+-------+---------+---------+
       Grand Total:               26500   543       20     


LINKER GENERATED COPY TABLES

__TI_cinit_table @ 000069a0 records: 1, size/record: 8, table size: 8
	.data: load addr=00006988, load size=0000000f bytes, run addr=08001500, run size=00000014 bytes, compression=lzss


LINKER GENERATED HANDLER TABLE

__TI_handler_table @ 00006998 records: 2, size/record: 4, table size: 8
	index: 0, handler: __TI_decompress_lzss
	index: 1, handler: __TI_decompress_none


GLOBAL SYMBOLS: SORTED ALPHABETICALLY BY Name 

address   name                                
-------   ----                                
000066b5  C$$EXIT                             
UNDEFED   SHT$$INIT_ARRAY$$Base               
UNDEFED   SHT$$INIT_ARRAY$$Limit              
000069a0  __TI_CINIT_Base                     
000069a8  __TI_CINIT_Limit                    
00006998  __TI_Handler_Table_Base             
000069a0  __TI_Handler_Table_Limit            
00005ae0  __TI_PINIT_Base                     
00005ae4  __TI_PINIT_Limit                    
000065d9  __TI_auto_init                      
08001500  __TI_cleanup_ptr                    
00006649  __TI_decompress_lzss                
00006765  __TI_decompress_none                
08001504  __TI_dtors_ptr                      
08001508  __TI_enable_exit_profile_output     
ffffffff  __TI_pprof_out_hndl                 
ffffffff  __TI_prof_data_size                 
ffffffff  __TI_prof_data_start                
00000000  __TI_static_base__                  
0000653d  __aeabi_memcpy                      
0000653d  __aeabi_memcpy4                     
0000653d  __aeabi_memcpy8                     
ffffffff  __binit__                           
ffffffff  __c_args__                          
00005db4  _c_int00                            
000059f8  _coreClearAuxiliaryDataFault_       
00005a0c  _coreClearAuxiliaryInstructionFault_
000059d0  _coreClearDataFaultAddress_         
000059a8  _coreClearDataFault_                
000059e4  _coreClearInstructionFaultAddress_  
000059bc  _coreClearInstructionFault_         
0000593c  _coreDisableEventBusExport_         
00005980  _coreDisableFlashEcc_               
0000595c  _coreDisableRamEcc_                 
0000592c  _coreEnableEventBusExport_          
0000596c  _coreEnableFlashEcc_                
00005990  _coreEnableIrqVicOffset_            
0000594c  _coreEnableRamEcc_                  
00005914  _coreEnableVfp_                     
000059f0  _coreGetAuxiliaryDataFault_         
00005a04  _coreGetAuxiliaryInstructionFault_  
000059c8  _coreGetDataFaultAddress_           
000059a0  _coreGetDataFault_                  
000059dc  _coreGetInstructionFaultAddress_    
000059b4  _coreGetInstructionFault_           
0000579c  _coreInitRegisters_                 
000058a8  _coreInitStackPointer_              
00006374  _dabort                             
00005a20  _disable_FIQ_interrupt_             
00005a28  _disable_IRQ_interrupt_             
00005a18  _disable_interrupt_                 
00005a30  _enable_interrupt_                  
00005ac0  _errata_CORTEXR4_57_                
00005ad0  _errata_CORTEXR4_66_                
00004b60  _errata_SSWF021_45_both_plls        
00004d54  _errata_SSWF021_45_pll1             
00004ecc  _errata_SSWF021_45_pll2             
00005a38  _esmCcmErrorsClear_                 
000058f4  _getCPSRValue_                      
000058fc  _gotoCPUIdle_                       
0800150c  _lock                               
0000675f  _nop                                
000064b8  _pmuDisableCountersGlobal_          
000064a8  _pmuEnableCountersGlobal_           
00006514  _pmuGetCycleCount_                  
0000651c  _pmuGetEventCount_                  
00006528  _pmuGetOverflow_                    
0000645c  _pmuInit_                           
000064e8  _pmuResetCounters_                  
000064c8  _pmuResetCycleCounter_              
000064d8  _pmuResetEventCounters_             
00006508  _pmuSetCountEvent_                  
000064f8  _pmuStartCounters_                  
00006500  _pmuStopCounters_                   
00006757  _register_lock                      
00006751  _register_unlock                    
00006773  _system_post_cinit                  
08001510  _unlock                             
000066b9  abort                               
0000126c  adc1ParityCheck                     
00001358  adc2ParityCheck                     
000060ac  adcNotification                     
ffffffff  binit                               
00001410  can1ParityCheck                     
000014e8  can2ParityCheck                     
000015b0  can3ParityCheck                     
000060c0  canErrorNotification                
000060e8  canMessageNotification              
000060d4  canStatusChangeNotification         
00000030  ccmSelfCheck                        
000026fc  ccmr4GetConfigValue                 
00000938  checkB0RAMECC                       
00000b28  checkB1RAMECC                       
00001c18  checkClockMonitor                   
00000d18  checkFlashECC                       
00001cf4  checkFlashEEPROMECC                 
00001e8c  checkPLL1Slip                       
00001f8c  checkPLL2Slip                       
00002050  checkRAMAddrParity                  
000019d0  checkRAMECC                         
0000215c  checkRAMUERRTest                    
000007bc  checkefcSelfTest                    
00006705  copy_in                             
00000234  cpuSelfTest                         
00000dfc  cpuSelfTestFail                     
000061ec  crcNotification                     
00003784  customTrimLPO                       
00000df4  custom_dabort                       
000060fc  dccNotification                     
00002b58  disableParity                       
0000624c  dmaGroupANotification               
00000eac  dmaParityCheck                      
00006238  ecapNotification                    
000061c4  edgeNotification                    
00000660  efcCheck                            
00002660  efcGetConfigValue                   
00000794  efcSelfTest                         
000006e8  efcStuckZeroTest                    
00002ad0  enableParity                        
00006224  eqepNotification                    
0000276c  errata_PBIST_4                      
00005350  esmActivateNormalOperation          
00005434  esmClearStatus                      
00005478  esmClearStatusBuffer                
00005314  esmDisableError                     
0000538c  esmDisableInterrupt                 
000052e8  esmEnableError                      
00005360  esmEnableInterrupt                  
00005570  esmEnterSelfTest                    
000052cc  esmError                            
00005648  esmGetConfigValue                   
000054b4  esmGetStatus                        
00005538  esmGetStatusBuffer                  
00006044  esmGroup1Notification               
00006054  esmGroup2Notification               
00006260  esmHighInterrupt                    
000051c4  esmInit                             
000055f8  esmSelfTestStatus                   
00005494  esmSetCounterPreloadValue           
000053b8  esmSetInterruptLevel                
00005340  esmTriggerErrorPinReset             
00006200  etpwmNotification                   
00006210  etpwmTripNotification               
000066c1  exit                                
000022c4  fmcBus1ParityCheck                  
0000085c  fmcBus2Check                        
00000898  fmcECCcheck                         
00006110  gioNotification                     
00006780  handlePLLLockFail                   
00000f58  het1ParityCheck                     
000010c0  het2ParityCheck                     
000061d8  hetNotification                     
00001004  htu1ParityCheck                     
000011bc  htu2ParityCheck                     
00006124  i2cNotification                     
00006138  linNotification                     
00006774  main                                
00002e64  mapClocks                           
0000653d  memcpy                              
00000174  memoryInit                          
00006064  memoryPort0TestFailNotification     
00006080  memoryPort1TestFailNotification     
00001684  mibspi1ParityCheck                  
0000178c  mibspi3ParityCheck                  
000018b0  mibspi5ParityCheck                  
00006160  mibspiGroupNotification             
0000614c  mibspiNotification                  
000042b4  muxInit                             
000023ec  pbistFail                           
00002470  pbistGetConfigValue                 
000005a8  pbistIsTestCompleted                
000005d4  pbistIsTestPassed                   
00000608  pbistPortTestStatus                 
000004ac  pbistRun                            
000002cc  pbistSelfCheck                      
00000578  pbistStop                           
00002e10  periphInit                          
0000677c  phantomInterrupt                    
00004750  pinmuxGetConfigValue                
000061ac  pwmNotification                     
00000000  resetEntry                          
0000609c  rtiNotification                     
00006174  sciNotification                     
00000020  selftestFailNotification            
00002dd0  setupFlash                          
00002cfc  setupPLL                            
0000619c  spiEndNotification                  
00006188  spiNotification                     
00003648  sramGetConfigValue                  
000025bc  stcGetConfigValue                   
000001b8  stcSelfCheck                        
00000df8  stcSelfCheckFail                    
00003088  systemGetConfigValue                
00002f8c  systemInit                          
00003058  systemPowerDown                     
0000349c  tcmflashGetConfigValue              
00002d5c  trimLPO                             
00003934  vimChannelMap                       
00003ba0  vimDisableInterrupt                 
000039d8  vimEnableInterrupt                  
00003c4c  vimGetConfigValue                   
00003860  vimInit                             
00000e00  vimParityCheck                      
00005ae8  vimParityErrorHandler               


GLOBAL SYMBOLS: SORTED BY Symbol Address 

address   name                                
-------   ----                                
00000000  __TI_static_base__                  
00000000  resetEntry                          
00000020  selftestFailNotification            
00000030  ccmSelfCheck                        
00000174  memoryInit                          
000001b8  stcSelfCheck                        
00000234  cpuSelfTest                         
000002cc  pbistSelfCheck                      
000004ac  pbistRun                            
00000578  pbistStop                           
000005a8  pbistIsTestCompleted                
000005d4  pbistIsTestPassed                   
00000608  pbistPortTestStatus                 
00000660  efcCheck                            
000006e8  efcStuckZeroTest                    
00000794  efcSelfTest                         
000007bc  checkefcSelfTest                    
0000085c  fmcBus2Check                        
00000898  fmcECCcheck                         
00000938  checkB0RAMECC                       
00000b28  checkB1RAMECC                       
00000d18  checkFlashECC                       
00000df4  custom_dabort                       
00000df8  stcSelfCheckFail                    
00000dfc  cpuSelfTestFail                     
00000e00  vimParityCheck                      
00000eac  dmaParityCheck                      
00000f58  het1ParityCheck                     
00001004  htu1ParityCheck                     
000010c0  het2ParityCheck                     
000011bc  htu2ParityCheck                     
0000126c  adc1ParityCheck                     
00001358  adc2ParityCheck                     
00001410  can1ParityCheck                     
000014e8  can2ParityCheck                     
000015b0  can3ParityCheck                     
00001684  mibspi1ParityCheck                  
0000178c  mibspi3ParityCheck                  
000018b0  mibspi5ParityCheck                  
000019d0  checkRAMECC                         
00001c18  checkClockMonitor                   
00001cf4  checkFlashEEPROMECC                 
00001e8c  checkPLL1Slip                       
00001f8c  checkPLL2Slip                       
00002050  checkRAMAddrParity                  
0000215c  checkRAMUERRTest                    
000022c4  fmcBus1ParityCheck                  
000023ec  pbistFail                           
00002470  pbistGetConfigValue                 
000025bc  stcGetConfigValue                   
00002660  efcGetConfigValue                   
000026fc  ccmr4GetConfigValue                 
0000276c  errata_PBIST_4                      
00002ad0  enableParity                        
00002b58  disableParity                       
00002cfc  setupPLL                            
00002d5c  trimLPO                             
00002dd0  setupFlash                          
00002e10  periphInit                          
00002e64  mapClocks                           
00002f8c  systemInit                          
00003058  systemPowerDown                     
00003088  systemGetConfigValue                
0000349c  tcmflashGetConfigValue              
00003648  sramGetConfigValue                  
00003784  customTrimLPO                       
00003860  vimInit                             
00003934  vimChannelMap                       
000039d8  vimEnableInterrupt                  
00003ba0  vimDisableInterrupt                 
00003c4c  vimGetConfigValue                   
000042b4  muxInit                             
00004750  pinmuxGetConfigValue                
00004b60  _errata_SSWF021_45_both_plls        
00004d54  _errata_SSWF021_45_pll1             
00004ecc  _errata_SSWF021_45_pll2             
000051c4  esmInit                             
000052cc  esmError                            
000052e8  esmEnableError                      
00005314  esmDisableError                     
00005340  esmTriggerErrorPinReset             
00005350  esmActivateNormalOperation          
00005360  esmEnableInterrupt                  
0000538c  esmDisableInterrupt                 
000053b8  esmSetInterruptLevel                
00005434  esmClearStatus                      
00005478  esmClearStatusBuffer                
00005494  esmSetCounterPreloadValue           
000054b4  esmGetStatus                        
00005538  esmGetStatusBuffer                  
00005570  esmEnterSelfTest                    
000055f8  esmSelfTestStatus                   
00005648  esmGetConfigValue                   
0000579c  _coreInitRegisters_                 
000058a8  _coreInitStackPointer_              
000058f4  _getCPSRValue_                      
000058fc  _gotoCPUIdle_                       
00005914  _coreEnableVfp_                     
0000592c  _coreEnableEventBusExport_          
0000593c  _coreDisableEventBusExport_         
0000594c  _coreEnableRamEcc_                  
0000595c  _coreDisableRamEcc_                 
0000596c  _coreEnableFlashEcc_                
00005980  _coreDisableFlashEcc_               
00005990  _coreEnableIrqVicOffset_            
000059a0  _coreGetDataFault_                  
000059a8  _coreClearDataFault_                
000059b4  _coreGetInstructionFault_           
000059bc  _coreClearInstructionFault_         
000059c8  _coreGetDataFaultAddress_           
000059d0  _coreClearDataFaultAddress_         
000059dc  _coreGetInstructionFaultAddress_    
000059e4  _coreClearInstructionFaultAddress_  
000059f0  _coreGetAuxiliaryDataFault_         
000059f8  _coreClearAuxiliaryDataFault_       
00005a04  _coreGetAuxiliaryInstructionFault_  
00005a0c  _coreClearAuxiliaryInstructionFault_
00005a18  _disable_interrupt_                 
00005a20  _disable_FIQ_interrupt_             
00005a28  _disable_IRQ_interrupt_             
00005a30  _enable_interrupt_                  
00005a38  _esmCcmErrorsClear_                 
00005ac0  _errata_CORTEXR4_57_                
00005ad0  _errata_CORTEXR4_66_                
00005ae0  __TI_PINIT_Base                     
00005ae4  __TI_PINIT_Limit                    
00005ae8  vimParityErrorHandler               
00005db4  _c_int00                            
00006044  esmGroup1Notification               
00006054  esmGroup2Notification               
00006064  memoryPort0TestFailNotification     
00006080  memoryPort1TestFailNotification     
0000609c  rtiNotification                     
000060ac  adcNotification                     
000060c0  canErrorNotification                
000060d4  canStatusChangeNotification         
000060e8  canMessageNotification              
000060fc  dccNotification                     
00006110  gioNotification                     
00006124  i2cNotification                     
00006138  linNotification                     
0000614c  mibspiNotification                  
00006160  mibspiGroupNotification             
00006174  sciNotification                     
00006188  spiNotification                     
0000619c  spiEndNotification                  
000061ac  pwmNotification                     
000061c4  edgeNotification                    
000061d8  hetNotification                     
000061ec  crcNotification                     
00006200  etpwmNotification                   
00006210  etpwmTripNotification               
00006224  eqepNotification                    
00006238  ecapNotification                    
0000624c  dmaGroupANotification               
00006260  esmHighInterrupt                    
00006374  _dabort                             
0000645c  _pmuInit_                           
000064a8  _pmuEnableCountersGlobal_           
000064b8  _pmuDisableCountersGlobal_          
000064c8  _pmuResetCycleCounter_              
000064d8  _pmuResetEventCounters_             
000064e8  _pmuResetCounters_                  
000064f8  _pmuStartCounters_                  
00006500  _pmuStopCounters_                   
00006508  _pmuSetCountEvent_                  
00006514  _pmuGetCycleCount_                  
0000651c  _pmuGetEventCount_                  
00006528  _pmuGetOverflow_                    
0000653d  __aeabi_memcpy                      
0000653d  __aeabi_memcpy4                     
0000653d  __aeabi_memcpy8                     
0000653d  memcpy                              
000065d9  __TI_auto_init                      
00006649  __TI_decompress_lzss                
000066b5  C$$EXIT                             
000066b9  abort                               
000066c1  exit                                
00006705  copy_in                             
00006751  _register_unlock                    
00006757  _register_lock                      
0000675f  _nop                                
00006765  __TI_decompress_none                
00006773  _system_post_cinit                  
00006774  main                                
0000677c  phantomInterrupt                    
00006780  handlePLLLockFail                   
00006998  __TI_Handler_Table_Base             
000069a0  __TI_CINIT_Base                     
000069a0  __TI_Handler_Table_Limit            
000069a8  __TI_CINIT_Limit                    
08001500  __TI_cleanup_ptr                    
08001504  __TI_dtors_ptr                      
08001508  __TI_enable_exit_profile_output     
0800150c  _lock                               
08001510  _unlock                             
ffffffff  __TI_pprof_out_hndl                 
ffffffff  __TI_prof_data_size                 
ffffffff  __TI_prof_data_start                
ffffffff  __binit__                           
ffffffff  __c_args__                          
ffffffff  binit                               
UNDEFED   SHT$$INIT_ARRAY$$Base               
UNDEFED   SHT$$INIT_ARRAY$$Limit              

[204 symbols]
